target datalayout = "e-m:e-p270:32:32-p271:32:32-p272:64:64-i64:64-i128:128-f80:128-n8:16:32:64-S128"
target triple = "x86_64-pc-linux-gnu"

%struct.SDL_VideoDevice = type { ptr, ptr, ptr, ptr, ptr, ptr, ptr, ptr, ptr, ptr, ptr, ptr, ptr, ptr, ptr, ptr, ptr, ptr, ptr, ptr, ptr, ptr, ptr, ptr, ptr, ptr, ptr, ptr, ptr, ptr, ptr, ptr, ptr, ptr, ptr, ptr, ptr, ptr, ptr, ptr, ptr, ptr, ptr, ptr, ptr, ptr, ptr, ptr, ptr, ptr, ptr, ptr, ptr, ptr, ptr, ptr, ptr, ptr, ptr, ptr, ptr, ptr, ptr, ptr, ptr, ptr, ptr, ptr, ptr, ptr, ptr, ptr, ptr, ptr, ptr, ptr, ptr, ptr, ptr, ptr, ptr, ptr, ptr, ptr, ptr, ptr, ptr, ptr, ptr, ptr, ptr, ptr, ptr, ptr, ptr, ptr, ptr, i64, i8, i8, i8, ptr, i32, ptr, %struct.SDL_Rect, ptr, ptr, i32, ptr, ptr, ptr, ptr, i64, ptr, i8, i32, i32, %struct.anon, ptr, ptr, ptr, ptr, ptr, ptr, %struct.SDL_AtomicInt, %struct.SDL_AtomicInt, i8, %struct.anon.0, ptr, ptr, ptr, ptr, ptr }
%struct.SDL_Rect = type { i32, i32, i32, i32 }
%struct.anon = type { i32, i32, i32, i32, i32, i32, i32, i32, i32, i32, i32, i32, i32, i32, i32, i32, i32, i32, i32, i32, i32, i32, i32, i32, i32, i32, i32, i32, i32, [256 x i8], ptr }
%struct.SDL_AtomicInt = type { i32 }
%struct.anon.0 = type { ptr, ptr, i32, [256 x i8], ptr }
%struct.SDL_Point = type { i32, i32 }
%struct.anon.4 = type { ptr, ptr, i32, i32, i32, i32, ptr, i64, i64, i64, i32, ptr, i32, i32, i32, i32, i32, ptr, i32, i32, ptr, ptr, i32, i64, i64, ptr, ptr, ptr, ptr, i32, ptr, ptr, ptr, i32, i32, ptr, i64, i64, i32, i32, ptr, ptr, i32, ptr }
%struct.SDL_VideoData = type { ptr, ptr, i32, ptr, i64, i32, ptr, i32, i64, i64, %struct.X11_ClipboardData, %struct.X11_ClipboardData, ptr, i64, %struct.X11_SettingsData, i8, %struct.anon.1, [256 x i32], i8, i8, i8, i64, i8, %struct.SDL_Point, i32, ptr, i32, i8, i32, %struct.anon.2, i8, i64, ptr, ptr, i8, i8, i8 }
%struct.X11_ClipboardData = type { ptr, ptr, ptr, i64, i32 }
%struct.X11_SettingsData = type { ptr }
%struct.anon.1 = type { i64, i64, i64, i64, i64, i64, i64, i64, i64, i64, i64, i64, i64, i64, i64, i64, i64, i64, i64, i64, i64, i64, i64, i64, i64, i64, i64, i64, i64, i64, i64, i64, i64, i64, i64, i64, i64, i64, i64, i64, i64, i64, i64, i64, i64, i64, i64, i64, i64, i64, i64, i64, i64 }
%struct.anon.2 = type { ptr, i32, i32, i32, i16, i32, i32 }

@x11_cursor_visible = internal global i8 1, align 1
@X11_XIGetClientPointer = external global ptr, align 8
@X11_XIWarpPointer = external global ptr, align 8
@X11_XWarpPointer = external global ptr, align 8
@X11_XSync = external global ptr, align 8

; Function Attrs: nounwind uwtable
define internal void @X11_WarpMouseInternal(i64 noundef %0, float noundef %1, float noundef %2) #0 {
  %4 = alloca i64, align 8
  %5 = alloca float, align 4
  %6 = alloca float, align 4
  %7 = alloca ptr, align 8
  %8 = alloca ptr, align 8
  %9 = alloca i8, align 1
  %10 = alloca i32, align 4
  store i64 %0, ptr %4, align 8
  store float %1, ptr %5, align 4
  store float %2, ptr %6, align 4
  call void @llvm.lifetime.start.p0(i64 8, ptr %7) #6
  %11 = call ptr @SDL_GetVideoDevice()
  %12 = getelementptr inbounds nuw %struct.SDL_VideoDevice, ptr %11, i32 0, i32 128
  %13 = load ptr, ptr %12, align 8
  store ptr %13, ptr %7, align 8
  call void @llvm.lifetime.start.p0(i64 8, ptr %8) #6
  %14 = load ptr, ptr %7, align 8
  %15 = getelementptr inbounds nuw %struct.SDL_VideoData, ptr %14, i32 0, i32 0
  %16 = load ptr, ptr %15, align 8
  store ptr %16, ptr %8, align 8
  call void @llvm.lifetime.start.p0(i64 1, ptr %9) #6
  store i8 0, ptr %9, align 1
  %17 = load ptr, ptr %7, align 8
  %18 = getelementptr inbounds nuw %struct.SDL_VideoData, ptr %17, i32 0, i32 36
  %19 = load i8, ptr %18, align 2, !range !6, !noundef !7
  %20 = trunc i8 %19 to i1
  br i1 %20, label %21, label %25

21:                                               ; preds = %3
  %22 = load i8, ptr @x11_cursor_visible, align 1, !range !6, !noundef !7
  %23 = trunc i8 %22 to i1
  br i1 %23, label %24, label %25

24:                                               ; preds = %21
  store i8 1, ptr %9, align 1
  br label %25

25:                                               ; preds = %24, %21, %3
  %26 = load i8, ptr %9, align 1, !range !6, !noundef !7
  %27 = trunc i8 %26 to i1
  br i1 %27, label %28, label %30

28:                                               ; preds = %25
  %29 = call zeroext i1 @X11_ShowCursor(ptr noundef null)
  br label %30

30:                                               ; preds = %28, %25
  call void @llvm.lifetime.start.p0(i64 4, ptr %10) #6
  store i32 0, ptr %10, align 4
  %31 = call zeroext i1 @X11_Xinput2IsInitialized()
  br i1 %31, label %32, label %42

32:                                               ; preds = %30
  %33 = load ptr, ptr %8, align 8
  %34 = getelementptr inbounds nuw %struct.anon.4, ptr %33, i32 0, i32 34
  %35 = load i32, ptr %34, align 4
  %36 = icmp eq i32 %35, 1
  br i1 %36, label %37, label %41

37:                                               ; preds = %32
  %38 = load ptr, ptr @X11_XIGetClientPointer, align 8
  %39 = load ptr, ptr %8, align 8
  %40 = call i32 %38(ptr noundef %39, i64 noundef 0, ptr noundef %10)
  br label %41

41:                                               ; preds = %37, %32
  br label %42

42:                                               ; preds = %41, %30
  %43 = load i32, ptr %10, align 4
  %44 = icmp ne i32 %43, 0
  br i1 %44, label %45, label %58

45:                                               ; preds = %42
  br label %46

46:                                               ; preds = %45
  br label %47

47:                                               ; preds = %46
  br label %48

48:                                               ; preds = %47
  %49 = load ptr, ptr @X11_XIWarpPointer, align 8
  %50 = load ptr, ptr %8, align 8
  %51 = load i32, ptr %10, align 4
  %52 = load i64, ptr %4, align 8
  %53 = load float, ptr %5, align 4
  %54 = fpext float %53 to double
  %55 = load float, ptr %6, align 4
  %56 = fpext float %55 to double
  %57 = call i32 %49(ptr noundef %50, i32 noundef %51, i64 noundef 0, i64 noundef %52, double noundef 0.000000e+00, double noundef 0.000000e+00, i32 noundef 0, i32 noundef 0, double noundef %54, double noundef %56)
  br label %67

58:                                               ; preds = %42
  %59 = load ptr, ptr @X11_XWarpPointer, align 8
  %60 = load ptr, ptr %8, align 8
  %61 = load i64, ptr %4, align 8
  %62 = load float, ptr %5, align 4
  %63 = fptosi float %62 to i32
  %64 = load float, ptr %6, align 4
  %65 = fptosi float %64 to i32
  %66 = call i32 %59(ptr noundef %60, i64 noundef 0, i64 noundef %61, i32 noundef 0, i32 noundef 0, i32 noundef 0, i32 noundef 0, i32 noundef %63, i32 noundef %65)
  br label %67

67:                                               ; preds = %58, %48
  %68 = load i8, ptr %9, align 1, !range !6, !noundef !7
  %69 = trunc i8 %68 to i1
  br i1 %69, label %70, label %73

70:                                               ; preds = %67
  %71 = call ptr @SDL_GetCursor_REAL()
  %72 = call zeroext i1 @X11_ShowCursor(ptr noundef %71)
  br label %73

73:                                               ; preds = %70, %67
  %74 = load ptr, ptr @X11_XSync, align 8
  %75 = load ptr, ptr %8, align 8
  %76 = call i32 %74(ptr noundef %75, i32 noundef 0)
  %77 = load ptr, ptr %7, align 8
  %78 = getelementptr inbounds nuw %struct.SDL_VideoData, ptr %77, i32 0, i32 22
  store i8 1, ptr %78, align 8
  call void @llvm.lifetime.end.p0(i64 4, ptr %10) #6
  call void @llvm.lifetime.end.p0(i64 1, ptr %9) #6
  call void @llvm.lifetime.end.p0(i64 8, ptr %8) #6
  call void @llvm.lifetime.end.p0(i64 8, ptr %7) #6
  ret void
}