; Function Attrs: nounwind uwtable
define internal fastcc void @X11_WarpMouseInternal(i64 noundef %0, float noundef %1, float noundef %2) unnamed_addr #0 {
  %4 = alloca i32, align 4
  %5 = tail call ptr @SDL_GetVideoDevice() #5
  %6 = getelementptr inbounds nuw i8, ptr %5, i64 1656
  %7 = load ptr, ptr %6, align 8
  %8 = load ptr, ptr %7, align 8
  %9 = getelementptr inbounds nuw i8, ptr %7, i64 1762
  %10 = load i8, ptr %9, align 2, !range !8, !noundef !9
  %11 = trunc nuw i8 %10 to i1
  %12 = load i8, ptr @x11_cursor_visible, align 1, !range !8
  %13 = trunc nuw i8 %12 to i1
  %or.cond = select i1 %11, i1 %13, i1 false
  br i1 %or.cond, label %14, label %16

14:                                               ; preds = %3
  %15 = tail call zeroext i1 @X11_ShowCursor(ptr noundef null)
  br label %16

16:                                               ; preds = %14, %3
  call void @llvm.lifetime.start.p0(i64 4, ptr nonnull %4) #5
  store i32 0, ptr %4, align 4
  %17 = tail call zeroext i1 @X11_Xinput2IsInitialized() #5
  br i1 %17, label %18, label %.thread

18:                                               ; preds = %16
  %19 = getelementptr inbounds nuw i8, ptr %8, i64 228
  %20 = load i32, ptr %19, align 4
  %21 = icmp eq i32 %20, 1
  br i1 %21, label %22, label %.thread

22:                                               ; preds = %18
  %23 = load ptr, ptr @X11_XIGetClientPointer, align 8
  %24 = call i32 %23(ptr noundef nonnull %8, i64 noundef 0, ptr noundef nonnull %4) #5
  %.pre = load i32, ptr %4, align 4
  %.not = icmp eq i32 %.pre, 0
  br i1 %.not, label %.thread, label %25

25:                                               ; preds = %22
  %26 = load ptr, ptr @X11_XIWarpPointer, align 8
  %27 = fpext float %1 to double
  %28 = fpext float %2 to double
  %29 = call i32 %26(ptr noundef nonnull %8, i32 noundef %.pre, i64 noundef 0, i64 noundef %0, double noundef 0.000000e+00, double noundef 0.000000e+00, i32 noundef 0, i32 noundef 0, double noundef %27, double noundef %28) #5
  br label %34

.thread:                                          ; preds = %16, %18, %22
  %30 = load ptr, ptr @X11_XWarpPointer, align 8
  %31 = fptosi float %1 to i32
  %32 = fptosi float %2 to i32
  %33 = call i32 %30(ptr noundef %8, i64 noundef 0, i64 noundef %0, i32 noundef 0, i32 noundef 0, i32 noundef 0, i32 noundef 0, i32 noundef %31, i32 noundef %32) #5
  br label %34

34:                                               ; preds = %.thread, %25
  br i1 %or.cond, label %35, label %38

35:                                               ; preds = %34
  %36 = call ptr @SDL_GetCursor_REAL() #5
  %37 = call zeroext i1 @X11_ShowCursor(ptr noundef %36)
  br label %38

38:                                               ; preds = %35, %34
  %39 = load ptr, ptr @X11_XSync, align 8
  %40 = call i32 %39(ptr noundef %8, i32 noundef 0) #5
  %41 = getelementptr inbounds nuw i8, ptr %7, i64 1656
  store i8 1, ptr %41, align 8
  call void @llvm.lifetime.end.p0(i64 4, ptr nonnull %4) #5
  ret void
}